; Function Attrs: null_pointer_is_valid sspstrong uwtable
define internal i32 @dissect_e2ap_T_e2nodeComponentInterfaceTypeF1(ptr noundef %0, i32 noundef %1, ptr noundef %2, ptr noundef %3, i32 noundef %4) #2 {
  %6 = load i32, ptr @ett_e2ap_E2nodeComponentInterfaceF1, align 4
  %7 = tail call i32 @dissect_per_sequence(ptr noundef %0, i32 noundef %1, ptr noundef %2, ptr noundef %3, i32 noundef %4, i32 noundef %6, ptr noundef nonnull @E2nodeComponentInterfaceF1_sequence)
  %8 = getelementptr inbounds nuw i8, ptr %2, i64 16
  %9 = load ptr, ptr %8, align 8
  %10 = getelementptr inbounds nuw i8, ptr %9, i64 408
  %11 = load ptr, ptr %10, align 8
  %12 = load i32, ptr @proto_e2ap, align 4
  %13 = tail call ptr @p_get_proto_data(ptr noundef %11, ptr noundef %9, i32 noundef %12, i32 noundef 0)
  %.not.i = icmp eq ptr %13, null
  br i1 %.not.i, label %14, label %e2ap_get_private_data.exit

14:                                               ; preds = %5
  %15 = load ptr, ptr %10, align 8
  %16 = tail call noalias dereferenceable_or_null(48) ptr @wmem_alloc0(ptr noundef %15, i64 noundef 48) #10
  %17 = load ptr, ptr %10, align 8
  %18 = load i32, ptr @proto_e2ap, align 4
  tail call void @p_add_proto_data(ptr noundef %17, ptr noundef %9, i32 noundef %18, i32 noundef 0, ptr noundef %16)
  br label %e2ap_get_private_data.exit

e2ap_get_private_data.exit:                       ; preds = %5, %14
  %.0.i = phi ptr [ %13, %5 ], [ %16, %14 ]
  %19 = tail call ptr @find_dissector(ptr noundef nonnull @.str.1893)
  %20 = getelementptr inbounds nuw i8, ptr %.0.i, i64 32
  store ptr %19, ptr %20, align 8
  ret i32 %7
}